; Function Attrs: nounwind uwtable
define noalias noundef ptr @Nwk_ManLutMergeReadGraph(ptr noundef readonly captures(none) %0) local_unnamed_addr #0 {
  %2 = alloca [100 x i8], align 16
  %3 = alloca i32, align 4
  %4 = alloca i32, align 4
  %5 = alloca i32, align 4
  %6 = alloca i32, align 4
  call void @llvm.lifetime.start.p0(i64 100, ptr nonnull %2) #20
  call void @llvm.lifetime.start.p0(i64 4, ptr nonnull %3) #20
  call void @llvm.lifetime.start.p0(i64 4, ptr nonnull %4) #20
  call void @llvm.lifetime.start.p0(i64 4, ptr nonnull %5) #20
  call void @llvm.lifetime.start.p0(i64 4, ptr nonnull %6) #20
  %7 = tail call noalias ptr @fopen(ptr noundef %0, ptr noundef nonnull @.str.3)
  %8 = call i32 (ptr, ptr, ...) @__isoc99_fscanf(ptr noundef %7, ptr noundef nonnull @.str.4, ptr noundef nonnull %2, ptr noundef nonnull %3) #20
  %9 = call i32 (ptr, ptr, ...) @__isoc99_fscanf(ptr noundef %7, ptr noundef nonnull @.str.4, ptr noundef nonnull %2, ptr noundef nonnull %4) #20
  %10 = load i32, ptr %3, align 4, !tbaa !42
  %11 = call ptr @Nwk_ManGraphAlloc(i32 noundef %10)
  %12 = call i32 (ptr, ptr, ...) @__isoc99_fscanf(ptr noundef %7, ptr noundef nonnull @.str.5, ptr noundef nonnull %2, ptr noundef nonnull %5, ptr noundef nonnull %6) #20
  %13 = icmp eq i32 %12, 3
  br i1 %13, label %.lr.ph, label %._crit_edge

.lr.ph:                                           ; preds = %1
  %14 = getelementptr inbounds nuw i8, ptr %11, i64 8
  %15 = getelementptr inbounds nuw i8, ptr %11, i64 16
  %16 = getelementptr inbounds nuw i8, ptr %11, i64 24
  %17 = getelementptr inbounds nuw i8, ptr %11, i64 32
  br label %18

18:                                               ; preds = %.lr.ph, %Nwk_ManGraphHashEdge.exit
  %19 = load i32, ptr %5, align 4, !tbaa !42
  %20 = load i32, ptr %6, align 4, !tbaa !42
  %21 = icmp eq i32 %19, %20
  br i1 %21, label %Nwk_ManGraphHashEdge.exit, label %22

22:                                               ; preds = %18
  %spec.select.i = call i32 @llvm.smin.i32(i32 %19, i32 %20)
  %spec.select37.i = call i32 @llvm.smax.i32(i32 %19, i32 %20)
  %23 = load i32, ptr %11, align 8, !tbaa !30
  %spec.store.select = call i32 @llvm.smax.i32(i32 %23, i32 %spec.select37.i)
  store i32 %spec.store.select, ptr %11, align 8
  %24 = mul nsw i32 %spec.select.i, 741457
  %25 = mul nsw i32 %spec.select37.i, 4256249
  %26 = add nsw i32 %24, %25
  %27 = load i32, ptr %14, align 8, !tbaa !18
  %28 = urem i32 %26, %27
  %29 = load ptr, ptr %15, align 8, !tbaa !19
  %30 = zext i32 %28 to i64
  %31 = getelementptr inbounds nuw ptr, ptr %29, i64 %30
  %.038.i = load ptr, ptr %31, align 8, !tbaa !35
  %.not39.i = icmp eq ptr %.038.i, null
  br i1 %.not39.i, label %._crit_edge.i, label %.lr.ph.i

.lr.ph.i:                                         ; preds = %22, %38
  %.040.i = phi ptr [ %.0.i, %38 ], [ %.038.i, %22 ]
  %32 = load i32, ptr %.040.i, align 8, !tbaa !37
  %33 = icmp eq i32 %32, %spec.select.i
  br i1 %33, label %34, label %38

34:                                               ; preds = %.lr.ph.i
  %35 = getelementptr inbounds nuw i8, ptr %.040.i, i64 4
  %36 = load i32, ptr %35, align 4, !tbaa !39
  %37 = icmp eq i32 %36, %spec.select37.i
  br i1 %37, label %Nwk_ManGraphHashEdge.exit, label %38

38:                                               ; preds = %34, %.lr.ph.i
  %39 = getelementptr inbounds nuw i8, ptr %.040.i, i64 8
  %.0.i = load ptr, ptr %39, align 8, !tbaa !35
  %.not.i = icmp eq ptr %.0.i, null
  br i1 %.not.i, label %._crit_edge.i, label %.lr.ph.i, !llvm.loop !40

._crit_edge.i:                                    ; preds = %38, %22
  %40 = load ptr, ptr %16, align 8, !tbaa !20
  %41 = call ptr @Aig_MmFixedEntryFetch(ptr noundef %40) #20
  store i32 %spec.select.i, ptr %41, align 8, !tbaa !37
  %42 = getelementptr inbounds nuw i8, ptr %41, i64 4
  store i32 %spec.select37.i, ptr %42, align 4, !tbaa !39
  %43 = load ptr, ptr %31, align 8, !tbaa !35
  %44 = getelementptr inbounds nuw i8, ptr %41, i64 8
  store ptr %43, ptr %44, align 8, !tbaa !41
  store ptr %41, ptr %31, align 8, !tbaa !35
  %45 = load i32, ptr %17, align 8, !tbaa !31
  %46 = add nsw i32 %45, 1
  store i32 %46, ptr %17, align 8, !tbaa !31
  br label %Nwk_ManGraphHashEdge.exit

Nwk_ManGraphHashEdge.exit:                        ; preds = %34, %18, %._crit_edge.i
  %47 = call i32 (ptr, ptr, ...) @__isoc99_fscanf(ptr noundef %7, ptr noundef nonnull @.str.5, ptr noundef nonnull %2, ptr noundef nonnull %5, ptr noundef nonnull %6) #20
  %48 = icmp eq i32 %47, 3
  br i1 %48, label %18, label %._crit_edge, !llvm.loop !73

._crit_edge:                                      ; preds = %Nwk_ManGraphHashEdge.exit, %1
  %49 = call i32 @fclose(ptr noundef %7)
  call void @llvm.lifetime.end.p0(i64 4, ptr nonnull %6) #20
  call void @llvm.lifetime.end.p0(i64 4, ptr nonnull %5) #20
  call void @llvm.lifetime.end.p0(i64 4, ptr nonnull %4) #20
  call void @llvm.lifetime.end.p0(i64 4, ptr nonnull %3) #20
  call void @llvm.lifetime.end.p0(i64 100, ptr nonnull %2) #20
  ret ptr %11
}